; Function Attrs: inlinehint mustprogress nounwind uwtable
define internal fastcc void @_ZN7testing8internal13edit_distance12_GLOBAL__N_14HunkD2Ev(ptr noundef nonnull readonly align 8 dereferenceable(112) %0) unnamed_addr #16 align 2 personality ptr @__gxx_personality_v0 {
  %2 = getelementptr inbounds nuw i8, ptr %0, i64 88
  %3 = load ptr, ptr %2, align 8, !tbaa !366
  %.not8.i.i = icmp eq ptr %3, %2
  br i1 %.not8.i.i, label %_ZNSt7__cxx1110_List_baseISt4pairIcPKcESaIS4_EED2Ev.exit, label %.lr.ph.i.i

.lr.ph.i.i:                                       ; preds = %1, %.lr.ph.i.i
  %.09.i.i = phi ptr [ %4, %.lr.ph.i.i ], [ %3, %1 ]
  %4 = load ptr, ptr %.09.i.i, align 8, !tbaa !366
  tail call void @_ZdlPv(ptr noundef nonnull %.09.i.i) #57
  %.not.i.i = icmp eq ptr %4, %2
  br i1 %.not.i.i, label %_ZNSt7__cxx1110_List_baseISt4pairIcPKcESaIS4_EED2Ev.exit, label %.lr.ph.i.i, !llvm.loop !380

_ZNSt7__cxx1110_List_baseISt4pairIcPKcESaIS4_EED2Ev.exit: ; preds = %.lr.ph.i.i, %1
  %5 = getelementptr inbounds nuw i8, ptr %0, i64 64
  %6 = load ptr, ptr %5, align 8, !tbaa !366
  %.not8.i.i1 = icmp eq ptr %6, %5
  br i1 %.not8.i.i1, label %_ZNSt7__cxx1110_List_baseISt4pairIcPKcESaIS4_EED2Ev.exit5, label %.lr.ph.i.i2

.lr.ph.i.i2:                                      ; preds = %_ZNSt7__cxx1110_List_baseISt4pairIcPKcESaIS4_EED2Ev.exit, %.lr.ph.i.i2
  %.09.i.i3 = phi ptr [ %7, %.lr.ph.i.i2 ], [ %6, %_ZNSt7__cxx1110_List_baseISt4pairIcPKcESaIS4_EED2Ev.exit ]
  %7 = load ptr, ptr %.09.i.i3, align 8, !tbaa !366
  tail call void @_ZdlPv(ptr noundef nonnull %.09.i.i3) #57
  %.not.i.i4 = icmp eq ptr %7, %5
  br i1 %.not.i.i4, label %_ZNSt7__cxx1110_List_baseISt4pairIcPKcESaIS4_EED2Ev.exit5, label %.lr.ph.i.i2, !llvm.loop !380

_ZNSt7__cxx1110_List_baseISt4pairIcPKcESaIS4_EED2Ev.exit5: ; preds = %.lr.ph.i.i2, %_ZNSt7__cxx1110_List_baseISt4pairIcPKcESaIS4_EED2Ev.exit
  %8 = getelementptr inbounds nuw i8, ptr %0, i64 40
  %9 = load ptr, ptr %8, align 8, !tbaa !366
  %.not8.i.i6 = icmp eq ptr %9, %8
  br i1 %.not8.i.i6, label %_ZNSt7__cxx1110_List_baseISt4pairIcPKcESaIS4_EED2Ev.exit10, label %.lr.ph.i.i7

.lr.ph.i.i7:                                      ; preds = %_ZNSt7__cxx1110_List_baseISt4pairIcPKcESaIS4_EED2Ev.exit5, %.lr.ph.i.i7
  %.09.i.i8 = phi ptr [ %10, %.lr.ph.i.i7 ], [ %9, %_ZNSt7__cxx1110_List_baseISt4pairIcPKcESaIS4_EED2Ev.exit5 ]
  %10 = load ptr, ptr %.09.i.i8, align 8, !tbaa !366
  tail call void @_ZdlPv(ptr noundef nonnull %.09.i.i8) #57
  %.not.i.i9 = icmp eq ptr %10, %8
  br i1 %.not.i.i9, label %_ZNSt7__cxx1110_List_baseISt4pairIcPKcESaIS4_EED2Ev.exit10, label %.lr.ph.i.i7, !llvm.loop !380

_ZNSt7__cxx1110_List_baseISt4pairIcPKcESaIS4_EED2Ev.exit10: ; preds = %.lr.ph.i.i7, %_ZNSt7__cxx1110_List_baseISt4pairIcPKcESaIS4_EED2Ev.exit5
  ret void
}